target datalayout = "e-m:e-p270:32:32-p271:32:32-p272:64:64-i64:64-i128:128-f80:128-n8:16:32:64-S128"
target triple = "x86_64-pc-linux-gnu"

@.str.24 = private unnamed_addr constant [12 x i8] c"lua_debug> \00", align 1
@stderr = external global ptr, align 8
@stdin = external global ptr, align 8
@.str.25 = private unnamed_addr constant [6 x i8] c"cont\0A\00", align 1
@.str.26 = private unnamed_addr constant [17 x i8] c"=(debug command)\00", align 1
@.str.27 = private unnamed_addr constant [31 x i8] c"(error object is not a string)\00", align 1
@.str.28 = private unnamed_addr constant [2 x i8] c"\0A\00", align 1

; Function Attrs: nounwind uwtable
define internal i32 @lj_cf_debug_debug(ptr noundef %0) #0 {
  %2 = alloca i32, align 4
  %3 = alloca ptr, align 8
  %4 = alloca [250 x i8], align 16
  %5 = alloca i32, align 4
  %6 = alloca ptr, align 8
  store ptr %0, ptr %3, align 8, !tbaa !4
  br label %7

7:                                                ; preds = %48, %1
  call void @llvm.lifetime.start.p0(i64 250, ptr %4) #8
  %8 = load ptr, ptr @stderr, align 8, !tbaa !43
  %9 = call i32 @fputs(ptr noundef @.str.24, ptr noundef %8)
  %10 = getelementptr inbounds [250 x i8], ptr %4, i64 0, i64 0
  %11 = load ptr, ptr @stdin, align 8, !tbaa !43
  %12 = call ptr @fgets(ptr noundef %10, i32 noundef 250, ptr noundef %11)
  %13 = icmp eq ptr %12, null
  br i1 %13, label %18, label %14

14:                                               ; preds = %7
  %15 = getelementptr inbounds [250 x i8], ptr %4, i64 0, i64 0
  %16 = call i32 @strcmp(ptr noundef %15, ptr noundef @.str.25) #9
  %17 = icmp eq i32 %16, 0
  br i1 %17, label %18, label %19

18:                                               ; preds = %14, %7
  store i32 0, ptr %2, align 4
  store i32 1, ptr %5, align 4
  br label %46

19:                                               ; preds = %14
  %20 = load ptr, ptr %3, align 8, !tbaa !4
  %21 = getelementptr inbounds [250 x i8], ptr %4, i64 0, i64 0
  %22 = getelementptr inbounds [250 x i8], ptr %4, i64 0, i64 0
  %23 = call i64 @strlen(ptr noundef %22) #9
  %24 = call i32 @luaL_loadbuffer(ptr noundef %20, ptr noundef %21, i64 noundef %23, ptr noundef @.str.26)
  %25 = icmp ne i32 %24, 0
  br i1 %25, label %30, label %26

26:                                               ; preds = %19
  %27 = load ptr, ptr %3, align 8, !tbaa !4
  %28 = call i32 @lua_pcall(ptr noundef %27, i32 noundef 0, i32 noundef 0, i32 noundef 0)
  %29 = icmp ne i32 %28, 0
  br i1 %29, label %30, label %44

30:                                               ; preds = %26, %19
  call void @llvm.lifetime.start.p0(i64 8, ptr %6) #8
  %31 = load ptr, ptr %3, align 8, !tbaa !4
  %32 = call ptr @lua_tolstring(ptr noundef %31, i32 noundef -1, ptr noundef null)
  store ptr %32, ptr %6, align 8, !tbaa !20
  %33 = load ptr, ptr %6, align 8, !tbaa !20
  %34 = icmp ne ptr %33, null
  br i1 %34, label %35, label %37

35:                                               ; preds = %30
  %36 = load ptr, ptr %6, align 8, !tbaa !20
  br label %38

37:                                               ; preds = %30
  br label %38

38:                                               ; preds = %37, %35
  %39 = phi ptr [ %36, %35 ], [ @.str.27, %37 ]
  %40 = load ptr, ptr @stderr, align 8, !tbaa !43
  %41 = call i32 @fputs(ptr noundef %39, ptr noundef %40)
  %42 = load ptr, ptr @stderr, align 8, !tbaa !43
  %43 = call i32 @fputs(ptr noundef @.str.28, ptr noundef %42)
  call void @llvm.lifetime.end.p0(i64 8, ptr %6) #8
  br label %44

44:                                               ; preds = %38, %26
  %45 = load ptr, ptr %3, align 8, !tbaa !4
  call void @lua_settop(ptr noundef %45, i32 noundef 0)
  store i32 0, ptr %5, align 4
  br label %46

46:                                               ; preds = %44, %18
  call void @llvm.lifetime.end.p0(i64 250, ptr %4) #8
  %47 = load i32, ptr %5, align 4
  switch i32 %47, label %51 [
    i32 0, label %48
    i32 1, label %49
  ]

48:                                               ; preds = %46
  br label %7

49:                                               ; preds = %46
  %50 = load i32, ptr %2, align 4
  ret i32 %50

51:                                               ; preds = %46
  unreachable
}