; Function Attrs: cold nounwind uwtable
define internal noundef i32 @lj_cf_debug_debug(ptr noundef %0) #3 {
  %2 = alloca [250 x i8], align 16
  call void @llvm.lifetime.start.p0(i64 250, ptr nonnull %2) #10
  %3 = load ptr, ptr @stderr, align 8, !tbaa !37
  %4 = tail call i64 @fwrite(ptr nonnull @.str.24, i64 11, i64 1, ptr %3) #13
  %5 = load ptr, ptr @stdin, align 8, !tbaa !37
  %6 = call ptr @fgets(ptr noundef nonnull %2, i32 noundef 250, ptr noundef %5)
  %7 = icmp eq ptr %6, null
  br i1 %7, label %._crit_edge, label %.lr.ph

.lr.ph:                                           ; preds = %1, %20
  %bcmp = call i32 @bcmp(ptr noundef nonnull dereferenceable(6) %2, ptr noundef nonnull dereferenceable(6) @.str.25, i64 6)
  %8 = icmp eq i32 %bcmp, 0
  br i1 %8, label %._crit_edge, label %9

9:                                                ; preds = %.lr.ph
  %10 = call i64 @strlen(ptr noundef nonnull dereferenceable(1) %2) #12
  %11 = call i32 @luaL_loadbuffer(ptr noundef %0, ptr noundef nonnull %2, i64 noundef %10, ptr noundef nonnull @.str.26) #10
  %.not = icmp eq i32 %11, 0
  br i1 %.not, label %12, label %14

12:                                               ; preds = %9
  %13 = call i32 @lua_pcall(ptr noundef %0, i32 noundef 0, i32 noundef 0, i32 noundef 0) #10
  %.not7 = icmp eq i32 %13, 0
  br i1 %.not7, label %20, label %14

14:                                               ; preds = %12, %9
  %15 = call ptr @lua_tolstring(ptr noundef %0, i32 noundef -1, ptr noundef null) #10
  %.not8 = icmp eq ptr %15, null
  %16 = select i1 %.not8, ptr @.str.27, ptr %15
  %17 = load ptr, ptr @stderr, align 8, !tbaa !37
  %18 = call i32 @fputs(ptr noundef nonnull %16, ptr noundef %17) #13
  %19 = load ptr, ptr @stderr, align 8, !tbaa !37
  %fputc = call i32 @fputc(i32 10, ptr %19)
  br label %20

20:                                               ; preds = %12, %14
  call void @lua_settop(ptr noundef %0, i32 noundef 0) #10
  call void @llvm.lifetime.end.p0(i64 250, ptr nonnull %2) #10
  call void @llvm.lifetime.start.p0(i64 250, ptr nonnull %2) #10
  %21 = load ptr, ptr @stderr, align 8, !tbaa !37
  %22 = call i64 @fwrite(ptr nonnull @.str.24, i64 11, i64 1, ptr %21) #13
  %23 = load ptr, ptr @stdin, align 8, !tbaa !37
  %24 = call ptr @fgets(ptr noundef nonnull %2, i32 noundef 250, ptr noundef %23)
  %25 = icmp eq ptr %24, null
  br i1 %25, label %._crit_edge, label %.lr.ph

._crit_edge:                                      ; preds = %20, %.lr.ph, %1
  call void @llvm.lifetime.end.p0(i64 250, ptr nonnull %2) #10
  ret i32 0
}